target datalayout = "e-m:e-p270:32:32-p271:32:32-p272:64:64-i64:64-i128:128-f80:128-n8:16:32:64-S128"
target triple = "x86_64-unknown-linux-gnu"

%"class.Assimp::Logger.base" = type <{ ptr, i32 }>
%"class.Assimp::Logger" = type <{ ptr, i32, [4 x i8] }>
%"class.Assimp::DefaultLogger" = type { %"class.Assimp::Logger.base", %"class.std::vector.0", i8, [2048 x i8], i64 }
%"class.std::vector.0" = type { %"struct.std::_Vector_base.1" }
%"struct.std::_Vector_base.1" = type { %"struct.std::_Vector_base<Assimp::LogStreamInfo *, std::allocator<Assimp::LogStreamInfo *>>::_Vector_impl" }
%"struct.std::_Vector_base<Assimp::LogStreamInfo *, std::allocator<Assimp::LogStreamInfo *>>::_Vector_impl" = type { %"struct.std::_Vector_base<Assimp::LogStreamInfo *, std::allocator<Assimp::LogStreamInfo *>>::_Vector_impl_data" }
%"struct.std::_Vector_base<Assimp::LogStreamInfo *, std::allocator<Assimp::LogStreamInfo *>>::_Vector_impl_data" = type { ptr, ptr, ptr }

; Function Attrs: mustprogress nounwind uwtable
define linkonce_odr hidden void @_ZNSt15__new_allocatorIPN6Assimp13LogStreamInfoEEC2Ev(ptr noundef nonnull align 1 dereferenceable(1) %this) unnamed_addr #0 comdat align 2 {
entry:
  %this.addr = alloca ptr, align 8
  store ptr %this, ptr %this.addr, align 8
  ret void
}

; Function Attrs: mustprogress nounwind uwtable
define linkonce_odr hidden void @_ZNSt12_Vector_baseIPN6Assimp13LogStreamInfoESaIS2_EE17_Vector_impl_dataC2Ev(ptr noundef nonnull align 8 dereferenceable(24) %this) unnamed_addr #0 comdat align 2 {
entry:
  %this.addr = alloca ptr, align 8
  store ptr %this, ptr %this.addr, align 8
  %this1 = load ptr, ptr %this.addr, align 8
  %_M_start = getelementptr inbounds %"struct.std::_Vector_base<Assimp::LogStreamInfo *, std::allocator<Assimp::LogStreamInfo *>>::_Vector_impl_data", ptr %this1, i32 0, i32 0
  store ptr null, ptr %_M_start, align 8
  %_M_finish = getelementptr inbounds %"struct.std::_Vector_base<Assimp::LogStreamInfo *, std::allocator<Assimp::LogStreamInfo *>>::_Vector_impl_data", ptr %this1, i32 0, i32 1
  store ptr null, ptr %_M_finish, align 8
  %_M_end_of_storage = getelementptr inbounds %"struct.std::_Vector_base<Assimp::LogStreamInfo *, std::allocator<Assimp::LogStreamInfo *>>::_Vector_impl_data", ptr %this1, i32 0, i32 2
  store ptr null, ptr %_M_end_of_storage, align 8
  ret void
}

; Function Attrs: mustprogress nounwind uwtable
define linkonce_odr hidden void @_ZNSaIPN6Assimp13LogStreamInfoEEC2Ev(ptr noundef nonnull align 1 dereferenceable(1) %this) unnamed_addr #0 comdat align 2 {
entry:
  %this.addr = alloca ptr, align 8
  store ptr %this, ptr %this.addr, align 8
  %this1 = load ptr, ptr %this.addr, align 8
  call void @_ZNSt15__new_allocatorIPN6Assimp13LogStreamInfoEEC2Ev(ptr noundef nonnull align 1 dereferenceable(1) %this1) #5
  ret void
}

; Function Attrs: mustprogress nounwind uwtable
define linkonce_odr hidden void @_ZNSt12_Vector_baseIPN6Assimp13LogStreamInfoESaIS2_EE12_Vector_implC2Ev(ptr noundef nonnull align 8 dereferenceable(24) %this) unnamed_addr #0 comdat align 2 {
entry:
  %this.addr = alloca ptr, align 8
  store ptr %this, ptr %this.addr, align 8
  %this1 = load ptr, ptr %this.addr, align 8
  call void @_ZNSaIPN6Assimp13LogStreamInfoEEC2Ev(ptr noundef nonnull align 1 dereferenceable(1) %this1) #5
  call void @_ZNSt12_Vector_baseIPN6Assimp13LogStreamInfoESaIS2_EE17_Vector_impl_dataC2Ev(ptr noundef nonnull align 8 dereferenceable(24) %this1) #5
  ret void
}

; Function Attrs: mustprogress nounwind uwtable
define linkonce_odr hidden void @_ZNSt12_Vector_baseIPN6Assimp13LogStreamInfoESaIS2_EEC2Ev(ptr noundef nonnull align 8 dereferenceable(24) %this) unnamed_addr #0 comdat align 2 {
entry:
  %this.addr = alloca ptr, align 8
  store ptr %this, ptr %this.addr, align 8
  %this1 = load ptr, ptr %this.addr, align 8
  %_M_impl = getelementptr inbounds %"struct.std::_Vector_base.1", ptr %this1, i32 0, i32 0
  call void @_ZNSt12_Vector_baseIPN6Assimp13LogStreamInfoESaIS2_EE12_Vector_implC2Ev(ptr noundef nonnull align 8 dereferenceable(24) %_M_impl) #5
  ret void
}

; Function Attrs: mustprogress nounwind uwtable
define linkonce_odr hidden void @_ZNSt6vectorIPN6Assimp13LogStreamInfoESaIS2_EEC2Ev(ptr noundef nonnull align 8 dereferenceable(24) %this) unnamed_addr #0 comdat align 2 {
entry:
  %this.addr = alloca ptr, align 8
  store ptr %this, ptr %this.addr, align 8
  %this1 = load ptr, ptr %this.addr, align 8
  call void @_ZNSt12_Vector_baseIPN6Assimp13LogStreamInfoESaIS2_EEC2Ev(ptr noundef nonnull align 8 dereferenceable(24) %this1) #5
  ret void
}

; Function Attrs: mustprogress nounwind uwtable
define linkonce_odr void @_ZN6Assimp6LoggerC2ENS0_11LogSeverityE(ptr noundef nonnull align 8 dereferenceable(12) %this, i32 noundef %severity) unnamed_addr #0 comdat align 2 {
entry:
  %this.addr = alloca ptr, align 8
  %severity.addr = alloca i32, align 4
  store ptr %this, ptr %this.addr, align 8
  store i32 %severity, ptr %severity.addr, align 4
  %this1 = load ptr, ptr %this.addr, align 8
  store ptr getelementptr inbounds ({ [11 x ptr] }, ptr @_ZTVN6Assimp6LoggerE, i32 0, i32 0, i32 2), ptr %this1, align 8
  %m_Severity = getelementptr inbounds %"class.Assimp::Logger", ptr %this1, i32 0, i32 1
  %0 = load i32, ptr %severity.addr, align 4
  store i32 %0, ptr %m_Severity, align 8
  ret void
}

; Function Attrs: mustprogress uwtable
define void @_ZN6Assimp13DefaultLoggerC2ENS_6Logger11LogSeverityE(ptr noundef nonnull align 8 dereferenceable(2104) %this, i32 noundef %severity) unnamed_addr #6 align 2 {
entry:
  %this.addr = alloca ptr, align 8
  %severity.addr = alloca i32, align 4
  store ptr %this, ptr %this.addr, align 8
  store i32 %severity, ptr %severity.addr, align 4
  %this1 = load ptr, ptr %this.addr, align 8
  %0 = load i32, ptr %severity.addr, align 4
  call void @_ZN6Assimp6LoggerC2ENS0_11LogSeverityE(ptr noundef nonnull align 8 dereferenceable(12) %this1, i32 noundef %0)
  store ptr getelementptr inbounds ({ [11 x ptr] }, ptr @_ZTVN6Assimp13DefaultLoggerE, i32 0, i32 0, i32 2), ptr %this1, align 8
  %m_StreamArray = getelementptr inbounds %"class.Assimp::DefaultLogger", ptr %this1, i32 0, i32 1
  call void @_ZNSt6vectorIPN6Assimp13LogStreamInfoESaIS2_EEC2Ev(ptr noundef nonnull align 8 dereferenceable(24) %m_StreamArray) #5
  %noRepeatMsg = getelementptr inbounds %"class.Assimp::DefaultLogger", ptr %this1, i32 0, i32 2
  store i8 0, ptr %noRepeatMsg, align 8
  %lastLen = getelementptr inbounds %"class.Assimp::DefaultLogger", ptr %this1, i32 0, i32 4
  store i64 0, ptr %lastLen, align 8
  %lastMsg = getelementptr inbounds %"class.Assimp::DefaultLogger", ptr %this1, i32 0, i32 3
  %arrayidx = getelementptr inbounds [2048 x i8], ptr %lastMsg, i64 0, i64 0
  store i8 0, ptr %arrayidx, align 1
  ret void
}