; Function Attrs: mustprogress nofree norecurse nosync nounwind willreturn memory(argmem: write) uwtable
define void @_ZN6Assimp13DefaultLoggerC2ENS_6Logger11LogSeverityE(ptr nocapture noundef nonnull writeonly align 8 dereferenceable(2104) %this, i32 noundef %severity) unnamed_addr #12 align 2 {
entry:
  %m_Severity.i = getelementptr inbounds i8, ptr %this, i64 8
  store i32 %severity, ptr %m_Severity.i, align 8
  store ptr getelementptr inbounds ({ [11 x ptr] }, ptr @_ZTVN6Assimp13DefaultLoggerE, i64 0, i32 0, i64 2), ptr %this, align 8
  %m_StreamArray = getelementptr inbounds i8, ptr %this, i64 16
  %lastLen = getelementptr inbounds i8, ptr %this, i64 2096
  store i64 0, ptr %lastLen, align 8
  tail call void @llvm.memset.p0.i64(ptr noundef nonnull align 8 dereferenceable(26) %m_StreamArray, i8 0, i64 26, i1 false)
  ret void
}